; Function Attrs: nounwind uwtable
define ptr @l_Lean_Environment_registerNamespace(ptr noundef %0, ptr noundef %1) local_unnamed_addr #0 {
  %3 = load ptr, ptr @l_Lean_namespacesExt, align 8, !tbaa !4
  %4 = getelementptr inbounds nuw i8, ptr %3, i64 8
  %5 = load ptr, ptr %4, align 8, !tbaa !4
  %6 = ptrtoint ptr %5 to i64
  %7 = and i64 %6, 1
  %.not = icmp eq i64 %7, 0
  br i1 %.not, label %8, label %lean_inc.exit19

8:                                                ; preds = %2
  %.val.i = load i32, ptr %5, align 4, !tbaa !8
  %9 = icmp sgt i32 %.val.i, 0
  br i1 %9, label %10, label %12, !prof !11

10:                                               ; preds = %8
  %11 = add nuw i32 %.val.i, 1
  store i32 %11, ptr %5, align 4, !tbaa !8
  br label %18

12:                                               ; preds = %8
  %.not.i22 = icmp eq i32 %.val.i, 0
  br i1 %.not.i22, label %.thread26, label %15

.thread26:                                        ; preds = %12
  %13 = getelementptr inbounds nuw i8, ptr %5, i64 32
  %14 = load i8, ptr %13, align 1, !tbaa !15
  br label %lean_dec.exit18

15:                                               ; preds = %12
  tail call void @lean_inc_ref_cold(ptr noundef nonnull %5) #3
  %.pr = load i32, ptr %5, align 4, !tbaa !8
  br label %18

lean_inc.exit19:                                  ; preds = %2
  %16 = getelementptr inbounds nuw i8, ptr %5, i64 32
  %17 = load i8, ptr %16, align 1, !tbaa !15
  br label %lean_dec.exit18

18:                                               ; preds = %15, %10
  %19 = phi i32 [ %.pr, %15 ], [ %11, %10 ]
  %20 = getelementptr inbounds nuw i8, ptr %5, i64 32
  %21 = load i8, ptr %20, align 1, !tbaa !15
  %22 = icmp sgt i32 %19, 1
  br i1 %22, label %23, label %25, !prof !16

23:                                               ; preds = %18
  %24 = add nsw i32 %19, -1
  store i32 %24, ptr %5, align 4, !tbaa !8
  br label %lean_dec.exit18

25:                                               ; preds = %18
  %.not.i = icmp eq i32 %19, 0
  br i1 %.not.i, label %lean_dec.exit18, label %26

26:                                               ; preds = %25
  tail call void @lean_dec_ref_cold(ptr noundef nonnull %5) #3
  br label %lean_dec.exit18

lean_dec.exit18:                                  ; preds = %26, %25, %23, %.thread26, %lean_inc.exit19
  %27 = phi i8 [ %17, %lean_inc.exit19 ], [ %21, %23 ], [ %21, %25 ], [ %21, %26 ], [ %14, %.thread26 ]
  %28 = load ptr, ptr @l_Lean_NameSSet_instInhabited, align 8, !tbaa !4
  %29 = load ptr, ptr @l_Lean_Environment_registerNamespace___closed__1, align 8, !tbaa !4
  %30 = ptrtoint ptr %0 to i64
  %31 = and i64 %30, 1
  %.not28 = icmp eq i64 %31, 0
  br i1 %.not28, label %32, label %lean_inc.exit

32:                                               ; preds = %lean_dec.exit18
  %.val.i23 = load i32, ptr %0, align 4, !tbaa !8
  %33 = icmp sgt i32 %.val.i23, 0
  br i1 %33, label %34, label %36, !prof !11

34:                                               ; preds = %32
  %35 = add nuw i32 %.val.i23, 1
  store i32 %35, ptr %0, align 4, !tbaa !8
  br label %lean_inc.exit

36:                                               ; preds = %32
  %.not.i24 = icmp eq i32 %.val.i23, 0
  br i1 %.not.i24, label %lean_inc.exit, label %37

37:                                               ; preds = %36
  tail call void @lean_inc_ref_cold(ptr noundef nonnull %0) #3
  br label %lean_inc.exit

lean_inc.exit:                                    ; preds = %37, %36, %34, %lean_dec.exit18
  %38 = tail call ptr @l_Lean_SimplePersistentEnvExtension_getState___rarg(ptr noundef %28, ptr noundef %29, ptr noundef %0, i8 noundef zeroext %27) #3
  %39 = tail call zeroext i8 @l_Lean_SMap_contains___at_Lean_NameSSet_contains___spec__1(ptr noundef %38, ptr noundef %1) #3
  %40 = icmp eq i8 %39, 0
  br i1 %40, label %41, label %43

41:                                               ; preds = %lean_inc.exit
  %42 = tail call ptr @l_Lean_PersistentEnvExtension_addEntry___rarg(ptr noundef %29, ptr noundef %0, ptr noundef %1) #3
  br label %lean_dec.exit

43:                                               ; preds = %lean_inc.exit
  %44 = ptrtoint ptr %1 to i64
  %45 = and i64 %44, 1
  %.not29 = icmp eq i64 %45, 0
  br i1 %.not29, label %46, label %lean_dec.exit

46:                                               ; preds = %43
  %47 = load i32, ptr %1, align 4, !tbaa !8
  %48 = icmp sgt i32 %47, 1
  br i1 %48, label %49, label %51, !prof !11

49:                                               ; preds = %46
  %50 = add nsw i32 %47, -1
  store i32 %50, ptr %1, align 4, !tbaa !8
  br label %lean_dec.exit

51:                                               ; preds = %46
  %.not.i20 = icmp eq i32 %47, 0
  br i1 %.not.i20, label %lean_dec.exit, label %52

52:                                               ; preds = %51
  tail call void @lean_dec_ref_cold(ptr noundef nonnull %1) #3
  br label %lean_dec.exit

lean_dec.exit:                                    ; preds = %43, %49, %51, %52, %41
  %.0 = phi ptr [ %42, %41 ], [ %0, %52 ], [ %0, %51 ], [ %0, %49 ], [ %0, %43 ]
  ret ptr %.0
}